(dp1
S'evictions'
p2
(dp3
S'c2d5b04ad4e64b54897c3c912a484d8aacca6fda'
p4
F1498416240.4461801
ssg4
(S'S'
(i__main__
Pouet
p5
(dp6
S'fullname'
p7
S''
sS'password'
p8
S'reabefza'
p9
sS'language'
p10
S'en'
p11
sS'digest'
p12
I0
sS'address'
p13
S'maisonneuv@eisti.eu'
p14
sbtp15
sS'version'
p16
I2
s.